target datalayout = "e-m:e-p270:32:32-p271:32:32-p272:64:64-i64:64-i128:128-f80:128-n8:16:32:64-S128"
target triple = "x86_64-pc-linux-gnu"

%struct.SDL_Renderer = type { ptr, ptr, ptr, ptr, ptr, ptr, ptr, ptr, ptr, ptr, ptr, ptr, ptr, ptr, ptr, ptr, ptr, ptr, ptr, ptr, ptr, ptr, ptr, ptr, ptr, ptr, ptr, ptr, ptr, ptr, i32, i8, ptr, i8, i8, i8, i64, i64, ptr, %struct.SDL_RenderViewState, %struct.SDL_FPoint, i32, i32, ptr, ptr, ptr, i32, float, float, float, float, %struct.SDL_FColor, i32, i32, i32, ptr, ptr, ptr, ptr, i32, %struct.SDL_FColor, float, %struct.SDL_Rect, %struct.SDL_Rect, i8, i8, i8, i8, ptr, i64, i64, i8, ptr, ptr, i32, ptr, i8, ptr, ptr }
%struct.SDL_RenderViewState = type { i32, i32, %struct.SDL_Rect, %struct.SDL_Rect, %struct.SDL_Rect, %struct.SDL_Rect, i8, %struct.SDL_FPoint, i32, i32, i32, %struct.SDL_FRect, %struct.SDL_FRect, %struct.SDL_FPoint, %struct.SDL_FPoint, %struct.SDL_FPoint }
%struct.SDL_FRect = type { float, float, float, float }
%struct.SDL_FPoint = type { float, float }
%struct.SDL_FColor = type { float, float, float, float }
%struct.SDL_Rect = type { i32, i32, i32, i32 }
%struct.GLES2_RenderData = type { ptr, i8, i8, i8, ptr, ptr, ptr, ptr, ptr, ptr, ptr, ptr, ptr, ptr, ptr, ptr, ptr, ptr, ptr, ptr, ptr, ptr, ptr, ptr, ptr, ptr, ptr, ptr, ptr, ptr, ptr, ptr, ptr, ptr, ptr, ptr, ptr, ptr, ptr, ptr, ptr, ptr, ptr, ptr, ptr, ptr, ptr, ptr, ptr, ptr, ptr, ptr, ptr, ptr, ptr, ptr, ptr, ptr, ptr, ptr, ptr, ptr, i32, [16 x i32], %struct.GLES2_ProgramCache, i8, i8, i8, i8, %struct.GLES2_DrawStateCache, i32 }
%struct.GLES2_ProgramCache = type { i32, ptr, ptr }
%struct.GLES2_DrawStateCache = type { %struct.SDL_Rect, i8, ptr, ptr, i32, i8, i8, i8, %struct.SDL_Rect, i8, i8, %struct.SDL_FColor, i8, i32, i32, ptr, ptr, [4 x [4 x float]] }
%struct.SDL_Texture = type { i32, i32, i32, i32, i32, float, float, i32, i32, i32, %struct.SDL_FColor, %struct.SDL_RenderViewState, ptr, ptr, ptr, ptr, i32, %struct.SDL_Rect, ptr, i32, i32, ptr, ptr, ptr }
%struct.SDL_Surface = type { i32, i32, i32, i32, i32, ptr, i32, ptr, i32, i32, ptr, i32, ptr, i32, ptr, i32, %struct.SDL_Rect, %struct.SDL_BlitMap }
%struct.SDL_BlitMap = type { i32, ptr, ptr, %struct.SDL_BlitInfo, i32, i32 }
%struct.SDL_BlitInfo = type { ptr, ptr, i32, i32, i32, i32, ptr, ptr, i32, i32, i32, i32, ptr, ptr, ptr, ptr, ptr, ptr, i32, i32, i8, i8, i8, i8 }

@.str.6 = private unnamed_addr constant [125 x i8] c"generated/home/dtcxzyw/WorkSpace/Projects/compilers/llvm-opt-benchmark/bench/sdl/SDL/src/render/opengles2/SDL_render_gles2.c\00", align 1
@.str.96 = private unnamed_addr constant [15 x i8] c"glReadPixels()\00", align 1
@__func__.GLES2_RenderReadPixels = private unnamed_addr constant [23 x i8] c"GLES2_RenderReadPixels\00", align 1
@.str.101 = private unnamed_addr constant [8 x i8] c"generic\00", align 1
@.str.102 = private unnamed_addr constant [26 x i8] c"%s: %s (%d): %s %s (0x%X)\00", align 1
@.str.103 = private unnamed_addr constant [16 x i8] c"GL_INVALID_ENUM\00", align 1
@.str.104 = private unnamed_addr constant [17 x i8] c"GL_INVALID_VALUE\00", align 1
@.str.105 = private unnamed_addr constant [21 x i8] c"GL_INVALID_OPERATION\00", align 1
@.str.106 = private unnamed_addr constant [17 x i8] c"GL_OUT_OF_MEMORY\00", align 1
@.str.107 = private unnamed_addr constant [12 x i8] c"GL_NO_ERROR\00", align 1
@.str.108 = private unnamed_addr constant [8 x i8] c"UNKNOWN\00", align 1

; Function Attrs: nounwind uwtable
define internal ptr @GL_TranslateError(i32 noundef %0) #0 {
  %2 = alloca ptr, align 8
  %3 = alloca i32, align 4
  store i32 %0, ptr %3, align 4
  %4 = load i32, ptr %3, align 4
  switch i32 %4, label %10 [
    i32 1280, label %5
    i32 1281, label %6
    i32 1282, label %7
    i32 1285, label %8
    i32 0, label %9
  ]

5:                                                ; preds = %1
  store ptr @.str.103, ptr %2, align 8
  br label %11

6:                                                ; preds = %1
  store ptr @.str.104, ptr %2, align 8
  br label %11

7:                                                ; preds = %1
  store ptr @.str.105, ptr %2, align 8
  br label %11

8:                                                ; preds = %1
  store ptr @.str.106, ptr %2, align 8
  br label %11

9:                                                ; preds = %1
  store ptr @.str.107, ptr %2, align 8
  br label %11

10:                                               ; preds = %1
  store ptr @.str.108, ptr %2, align 8
  br label %11

11:                                               ; preds = %10, %9, %8, %7, %6, %5
  %12 = load ptr, ptr %2, align 8
  ret ptr %12
}

; Function Attrs: nounwind uwtable
define internal zeroext i1 @GL_CheckAllErrors(ptr noundef %0, ptr noundef %1, ptr noundef %2, i32 noundef %3, ptr noundef %4) #0 {
  %6 = alloca i1, align 1
  %7 = alloca ptr, align 8
  %8 = alloca ptr, align 8
  %9 = alloca ptr, align 8
  %10 = alloca i32, align 4
  %11 = alloca ptr, align 8
  %12 = alloca ptr, align 8
  %13 = alloca i8, align 1
  %14 = alloca i32, align 4
  %15 = alloca i32, align 4
  store ptr %0, ptr %7, align 8
  store ptr %1, ptr %8, align 8
  store ptr %2, ptr %9, align 8
  store i32 %3, ptr %10, align 4
  store ptr %4, ptr %11, align 8
  call void @llvm.lifetime.start.p0(i64 8, ptr %12) #6
  %16 = load ptr, ptr %8, align 8
  %17 = getelementptr inbounds nuw %struct.SDL_Renderer, ptr %16, i32 0, i32 77
  %18 = load ptr, ptr %17, align 8
  store ptr %18, ptr %12, align 8
  call void @llvm.lifetime.start.p0(i64 1, ptr %13) #6
  store i8 1, ptr %13, align 1
  %19 = load ptr, ptr %12, align 8
  %20 = getelementptr inbounds nuw %struct.GLES2_RenderData, ptr %19, i32 0, i32 1
  %21 = load i8, ptr %20, align 8, !range !3, !noundef !4
  %22 = trunc i8 %21 to i1
  br i1 %22, label %24, label %23

23:                                               ; preds = %5
  store i1 true, ptr %6, align 1
  store i32 1, ptr %14, align 4
  br label %59

24:                                               ; preds = %5
  br label %25

25:                                               ; preds = %55, %24
  call void @llvm.lifetime.start.p0(i64 4, ptr %15) #6
  %26 = load ptr, ptr %12, align 8
  %27 = getelementptr inbounds nuw %struct.GLES2_RenderData, ptr %26, i32 0, i32 27
  %28 = load ptr, ptr %27, align 8
  %29 = call i32 %28()
  store i32 %29, ptr %15, align 4
  %30 = load i32, ptr %15, align 4
  %31 = icmp ne i32 %30, 0
  br i1 %31, label %32, label %51

32:                                               ; preds = %25
  %33 = load ptr, ptr %7, align 8
  %34 = icmp ne ptr %33, null
  br i1 %34, label %35, label %41

35:                                               ; preds = %32
  %36 = load ptr, ptr %7, align 8
  %37 = getelementptr inbounds i8, ptr %36, i64 0
  %38 = load i8, ptr %37, align 1
  %39 = sext i8 %38 to i32
  %40 = icmp eq i32 %39, 0
  br i1 %40, label %41, label %42

41:                                               ; preds = %35, %32
  store ptr @.str.101, ptr %7, align 8
  br label %42

42:                                               ; preds = %41, %35
  %43 = load ptr, ptr %7, align 8
  %44 = load ptr, ptr %9, align 8
  %45 = load i32, ptr %10, align 4
  %46 = load ptr, ptr %11, align 8
  %47 = load i32, ptr %15, align 4
  %48 = call ptr @GL_TranslateError(i32 noundef %47)
  %49 = load i32, ptr %15, align 4
  %50 = call zeroext i1 (ptr, ...) @SDL_SetError_REAL(ptr noundef @.str.102, ptr noundef %43, ptr noundef %44, i32 noundef %45, ptr noundef %46, ptr noundef %48, i32 noundef %49)
  store i8 0, ptr %13, align 1
  br label %52

51:                                               ; preds = %25
  store i32 2, ptr %14, align 4
  br label %53

52:                                               ; preds = %42
  store i32 0, ptr %14, align 4
  br label %53

53:                                               ; preds = %52, %51
  call void @llvm.lifetime.end.p0(i64 4, ptr %15) #6
  %54 = load i32, ptr %14, align 4
  switch i32 %54, label %61 [
    i32 0, label %55
    i32 2, label %56
  ]

55:                                               ; preds = %53
  br label %25

56:                                               ; preds = %53
  %57 = load i8, ptr %13, align 1, !range !3, !noundef !4
  %58 = trunc i8 %57 to i1
  store i1 %58, ptr %6, align 1
  store i32 1, ptr %14, align 4
  br label %59

59:                                               ; preds = %56, %23
  call void @llvm.lifetime.end.p0(i64 1, ptr %13) #6
  call void @llvm.lifetime.end.p0(i64 8, ptr %12) #6
  %60 = load i1, ptr %6, align 1
  ret i1 %60

61:                                               ; preds = %53
  unreachable
}

; Function Attrs: nounwind uwtable
define internal ptr @GLES2_RenderReadPixels(ptr noundef %0, ptr noundef %1) #0 {
  %3 = alloca ptr, align 8
  %4 = alloca ptr, align 8
  %5 = alloca ptr, align 8
  %6 = alloca ptr, align 8
  %7 = alloca i32, align 4
  %8 = alloca ptr, align 8
  %9 = alloca i32, align 4
  %10 = alloca i32, align 4
  %11 = alloca i32, align 4
  %12 = alloca i32, align 4
  store ptr %0, ptr %4, align 8
  store ptr %1, ptr %5, align 8
  call void @llvm.lifetime.start.p0(i64 8, ptr %6) #6
  %13 = load ptr, ptr %4, align 8
  %14 = getelementptr inbounds nuw %struct.SDL_Renderer, ptr %13, i32 0, i32 77
  %15 = load ptr, ptr %14, align 8
  store ptr %15, ptr %6, align 8
  call void @llvm.lifetime.start.p0(i64 4, ptr %7) #6
  %16 = load ptr, ptr %4, align 8
  %17 = getelementptr inbounds nuw %struct.SDL_Renderer, ptr %16, i32 0, i32 44
  %18 = load ptr, ptr %17, align 8
  %19 = icmp ne ptr %18, null
  br i1 %19, label %20, label %26

20:                                               ; preds = %2
  %21 = load ptr, ptr %4, align 8
  %22 = getelementptr inbounds nuw %struct.SDL_Renderer, ptr %21, i32 0, i32 44
  %23 = load ptr, ptr %22, align 8
  %24 = getelementptr inbounds nuw %struct.SDL_Texture, ptr %23, i32 0, i32 0
  %25 = load i32, ptr %24, align 8
  br label %27

26:                                               ; preds = %2
  br label %27

27:                                               ; preds = %26, %20
  %28 = phi i32 [ %25, %20 ], [ 376840196, %26 ]
  store i32 %28, ptr %7, align 4
  call void @llvm.lifetime.start.p0(i64 8, ptr %8) #6
  %29 = load ptr, ptr %5, align 8
  %30 = getelementptr inbounds nuw %struct.SDL_Rect, ptr %29, i32 0, i32 2
  %31 = load i32, ptr %30, align 4
  %32 = load ptr, ptr %5, align 8
  %33 = getelementptr inbounds nuw %struct.SDL_Rect, ptr %32, i32 0, i32 3
  %34 = load i32, ptr %33, align 4
  %35 = load i32, ptr %7, align 4
  %36 = call ptr @SDL_CreateSurface_REAL(i32 noundef %31, i32 noundef %34, i32 noundef %35)
  store ptr %36, ptr %8, align 8
  %37 = load ptr, ptr %8, align 8
  %38 = icmp ne ptr %37, null
  br i1 %38, label %40, label %39

39:                                               ; preds = %27
  store ptr null, ptr %3, align 8
  store i32 1, ptr %9, align 4
  br label %90

40:                                               ; preds = %27
  call void @llvm.lifetime.start.p0(i64 4, ptr %10) #6
  %41 = load ptr, ptr %5, align 8
  %42 = getelementptr inbounds nuw %struct.SDL_Rect, ptr %41, i32 0, i32 1
  %43 = load i32, ptr %42, align 4
  store i32 %43, ptr %10, align 4
  %44 = load ptr, ptr %4, align 8
  %45 = getelementptr inbounds nuw %struct.SDL_Renderer, ptr %44, i32 0, i32 44
  %46 = load ptr, ptr %45, align 8
  %47 = icmp ne ptr %46, null
  br i1 %47, label %58, label %48

48:                                               ; preds = %40
  call void @llvm.lifetime.start.p0(i64 4, ptr %11) #6
  call void @llvm.lifetime.start.p0(i64 4, ptr %12) #6
  %49 = load ptr, ptr %4, align 8
  %50 = call zeroext i1 @SDL_GetRenderOutputSize_REAL(ptr noundef %49, ptr noundef %11, ptr noundef %12)
  %51 = load i32, ptr %12, align 4
  %52 = load i32, ptr %10, align 4
  %53 = sub nsw i32 %51, %52
  %54 = load ptr, ptr %5, align 8
  %55 = getelementptr inbounds nuw %struct.SDL_Rect, ptr %54, i32 0, i32 3
  %56 = load i32, ptr %55, align 4
  %57 = sub nsw i32 %53, %56
  store i32 %57, ptr %10, align 4
  call void @llvm.lifetime.end.p0(i64 4, ptr %12) #6
  call void @llvm.lifetime.end.p0(i64 4, ptr %11) #6
  br label %58

58:                                               ; preds = %48, %40
  %59 = load ptr, ptr %6, align 8
  %60 = getelementptr inbounds nuw %struct.GLES2_RenderData, ptr %59, i32 0, i32 35
  %61 = load ptr, ptr %60, align 8
  %62 = load ptr, ptr %5, align 8
  %63 = getelementptr inbounds nuw %struct.SDL_Rect, ptr %62, i32 0, i32 0
  %64 = load i32, ptr %63, align 4
  %65 = load i32, ptr %10, align 4
  %66 = load ptr, ptr %5, align 8
  %67 = getelementptr inbounds nuw %struct.SDL_Rect, ptr %66, i32 0, i32 2
  %68 = load i32, ptr %67, align 4
  %69 = load ptr, ptr %5, align 8
  %70 = getelementptr inbounds nuw %struct.SDL_Rect, ptr %69, i32 0, i32 3
  %71 = load i32, ptr %70, align 4
  %72 = load ptr, ptr %8, align 8
  %73 = getelementptr inbounds nuw %struct.SDL_Surface, ptr %72, i32 0, i32 5
  %74 = load ptr, ptr %73, align 8
  call void %61(i32 noundef %64, i32 noundef %65, i32 noundef %68, i32 noundef %71, i32 noundef 6408, i32 noundef 5121, ptr noundef %74)
  %75 = load ptr, ptr %4, align 8
  %76 = call zeroext i1 @GL_CheckAllErrors(ptr noundef @.str.96, ptr noundef %75, ptr noundef @.str.6, i32 noundef 2092, ptr noundef @__func__.GLES2_RenderReadPixels)
  br i1 %76, label %79, label %77

77:                                               ; preds = %58
  %78 = load ptr, ptr %8, align 8
  call void @SDL_DestroySurface_REAL(ptr noundef %78)
  store ptr null, ptr %3, align 8
  store i32 1, ptr %9, align 4
  br label %89

79:                                               ; preds = %58
  %80 = load ptr, ptr %4, align 8
  %81 = getelementptr inbounds nuw %struct.SDL_Renderer, ptr %80, i32 0, i32 44
  %82 = load ptr, ptr %81, align 8
  %83 = icmp ne ptr %82, null
  br i1 %83, label %87, label %84

84:                                               ; preds = %79
  %85 = load ptr, ptr %8, align 8
  %86 = call zeroext i1 @SDL_FlipSurface_REAL(ptr noundef %85, i32 noundef 2)
  br label %87

87:                                               ; preds = %84, %79
  %88 = load ptr, ptr %8, align 8
  store ptr %88, ptr %3, align 8
  store i32 1, ptr %9, align 4
  br label %89

89:                                               ; preds = %87, %77
  call void @llvm.lifetime.end.p0(i64 4, ptr %10) #6
  br label %90

90:                                               ; preds = %89, %39
  call void @llvm.lifetime.end.p0(i64 8, ptr %8) #6
  call void @llvm.lifetime.end.p0(i64 4, ptr %7) #6
  call void @llvm.lifetime.end.p0(i64 8, ptr %6) #6
  %91 = load ptr, ptr %3, align 8
  ret ptr %91
}