; Function Attrs: nounwind uwtable
define internal ptr @GLES2_RenderReadPixels(ptr noundef %0, ptr noundef readonly captures(none) %1) #0 {
  %3 = alloca i32, align 4
  %4 = alloca i32, align 4
  %5 = getelementptr inbounds nuw i8, ptr %0, i64 696
  %6 = load ptr, ptr %5, align 8
  %7 = getelementptr inbounds nuw i8, ptr %0, i64 464
  %8 = load ptr, ptr %7, align 8
  %.not = icmp eq ptr %8, null
  br i1 %.not, label %11, label %9

9:                                                ; preds = %2
  %10 = load i32, ptr %8, align 8
  br label %11

11:                                               ; preds = %2, %9
  %12 = phi i32 [ %10, %9 ], [ 376840196, %2 ]
  %13 = getelementptr inbounds nuw i8, ptr %1, i64 8
  %14 = load i32, ptr %13, align 4
  %15 = getelementptr inbounds nuw i8, ptr %1, i64 12
  %16 = load i32, ptr %15, align 4
  %17 = tail call ptr @SDL_CreateSurface_REAL(i32 noundef %14, i32 noundef %16, i32 noundef %12) #10
  %.not26 = icmp eq ptr %17, null
  br i1 %.not26, label %53, label %18

18:                                               ; preds = %11
  %19 = getelementptr inbounds nuw i8, ptr %1, i64 4
  %20 = load i32, ptr %19, align 4
  %21 = load ptr, ptr %7, align 8
  %.not27 = icmp eq ptr %21, null
  br i1 %.not27, label %22, label %._crit_edge

._crit_edge:                                      ; preds = %18
  %.pre = load i32, ptr %15, align 4
  br label %28

22:                                               ; preds = %18
  call void @llvm.lifetime.start.p0(i64 4, ptr nonnull %3) #10
  call void @llvm.lifetime.start.p0(i64 4, ptr nonnull %4) #10
  %23 = call zeroext i1 @SDL_GetRenderOutputSize_REAL(ptr noundef nonnull %0, ptr noundef nonnull %3, ptr noundef nonnull %4) #10
  %24 = load i32, ptr %4, align 4
  %25 = load i32, ptr %15, align 4
  %26 = add i32 %20, %25
  %27 = sub i32 %24, %26
  call void @llvm.lifetime.end.p0(i64 4, ptr nonnull %4) #10
  call void @llvm.lifetime.end.p0(i64 4, ptr nonnull %3) #10
  br label %28

28:                                               ; preds = %._crit_edge, %22
  %29 = phi i32 [ %.pre, %._crit_edge ], [ %25, %22 ]
  %.0 = phi i32 [ %20, %._crit_edge ], [ %27, %22 ]
  %30 = getelementptr inbounds nuw i8, ptr %6, i64 264
  %31 = load ptr, ptr %30, align 8
  %32 = load i32, ptr %1, align 4
  %33 = load i32, ptr %13, align 4
  %34 = getelementptr inbounds nuw i8, ptr %17, i64 24
  %35 = load ptr, ptr %34, align 8
  call void %31(i32 noundef %32, i32 noundef %.0, i32 noundef %33, i32 noundef %29, i32 noundef 6408, i32 noundef 5121, ptr noundef %35) #10
  %.val = load ptr, ptr %5, align 8
  %36 = getelementptr inbounds nuw i8, ptr %.val, i64 8
  %37 = load i8, ptr %36, align 8, !range !5, !noundef !6
  %38 = trunc nuw i8 %37 to i1
  br i1 %38, label %.preheader.i, label %49

.preheader.i:                                     ; preds = %28
  %39 = getelementptr inbounds nuw i8, ptr %.val, i64 200
  %40 = load ptr, ptr %39, align 8
  %41 = call i32 %40() #10
  %.not6.i = icmp eq i32 %41, 0
  br i1 %.not6.i, label %49, label %.lr.ph.i

.lr.ph.i:                                         ; preds = %.preheader.i, %45
  %42 = phi i32 [ %48, %45 ], [ %41, %.preheader.i ]
  %switch.tableidx = add i32 %42, -1280
  %43 = icmp ult i32 %switch.tableidx, 6
  br i1 %43, label %switch.lookup, label %45

switch.lookup:                                    ; preds = %.lr.ph.i
  %44 = zext nneg i32 %switch.tableidx to i64
  %switch.gep = getelementptr inbounds nuw [6 x ptr], ptr @switch.table.GL_CheckAllErrors, i64 0, i64 %44
  %switch.load = load ptr, ptr %switch.gep, align 8
  br label %45

45:                                               ; preds = %.lr.ph.i, %switch.lookup
  %.0.i.i = phi ptr [ %switch.load, %switch.lookup ], [ @.str.108, %.lr.ph.i ]
  %46 = call zeroext i1 (ptr, ...) @SDL_SetError_REAL(ptr noundef nonnull @.str.102, ptr noundef nonnull @.str.96, ptr noundef nonnull @.str.6, i32 noundef 2092, ptr noundef nonnull @__func__.GLES2_RenderReadPixels, ptr noundef nonnull %.0.i.i, i32 noundef %42) #10
  %47 = load ptr, ptr %39, align 8
  %48 = call i32 %47() #10
  %.not.i = icmp eq i32 %48, 0
  br i1 %.not.i, label %GL_CheckAllErrors.exit, label %.lr.ph.i

GL_CheckAllErrors.exit:                           ; preds = %45
  call void @SDL_DestroySurface_REAL(ptr noundef nonnull %17) #10
  br label %53

49:                                               ; preds = %28, %.preheader.i
  %50 = load ptr, ptr %7, align 8
  %.not28 = icmp eq ptr %50, null
  br i1 %.not28, label %51, label %53

51:                                               ; preds = %49
  %52 = call zeroext i1 @SDL_FlipSurface_REAL(ptr noundef nonnull %17, i32 noundef 2) #10
  br label %53

53:                                               ; preds = %GL_CheckAllErrors.exit, %51, %49, %11
  %.023 = phi ptr [ null, %11 ], [ null, %GL_CheckAllErrors.exit ], [ %17, %51 ], [ %17, %49 ]
  ret ptr %.023
}